target datalayout = "e-m:e-p270:32:32-p271:32:32-p272:64:64-i64:64-i128:128-f80:128-n8:16:32:64-S128"
target triple = "x86_64-pc-linux-gnu"

%class.value_generator = type { ptr, %class.scoped_ptr_vector }
%class.scoped_ptr_vector = type { %class.ptr_vector }
%class.ptr_vector = type { %class.vector }
%class.vector = type { ptr }

; Function Attrs: mustprogress uwtable
define linkonce_odr hidden noundef nonnull align 8 dereferenceable(8) ptr @_ZN6vectorIP20value_generator_coreLb0EjE9push_backERKS1_(ptr noundef nonnull align 8 dereferenceable(8) %0, ptr noundef nonnull align 8 dereferenceable(8) %1) #5 comdat align 2 {
  %3 = alloca ptr, align 8
  %4 = alloca ptr, align 8
  store ptr %0, ptr %3, align 8, !tbaa !61
  store ptr %1, ptr %4, align 8, !tbaa !477
  %5 = load ptr, ptr %3, align 8
  %6 = getelementptr inbounds nuw %class.vector, ptr %5, i32 0, i32 0
  %7 = load ptr, ptr %6, align 8, !tbaa !63
  %8 = icmp eq ptr %7, null
  br i1 %8, label %19, label %9

9:                                                ; preds = %2
  %10 = getelementptr inbounds nuw %class.vector, ptr %5, i32 0, i32 0
  %11 = load ptr, ptr %10, align 8, !tbaa !63
  %12 = getelementptr inbounds i32, ptr %11, i64 -1
  %13 = load i32, ptr %12, align 4, !tbaa !35
  %14 = getelementptr inbounds nuw %class.vector, ptr %5, i32 0, i32 0
  %15 = load ptr, ptr %14, align 8, !tbaa !63
  %16 = getelementptr inbounds i32, ptr %15, i64 -2
  %17 = load i32, ptr %16, align 4, !tbaa !35
  %18 = icmp eq i32 %13, %17
  br i1 %18, label %19, label %20

19:                                               ; preds = %9, %2
  call void @_ZN6vectorIP20value_generator_coreLb0EjE13expand_vectorEv(ptr noundef nonnull align 8 dereferenceable(8) %5)
  br label %20

20:                                               ; preds = %19, %9
  %21 = getelementptr inbounds nuw %class.vector, ptr %5, i32 0, i32 0
  %22 = load ptr, ptr %21, align 8, !tbaa !63
  %23 = getelementptr inbounds nuw %class.vector, ptr %5, i32 0, i32 0
  %24 = load ptr, ptr %23, align 8, !tbaa !63
  %25 = getelementptr inbounds i32, ptr %24, i64 -1
  %26 = load i32, ptr %25, align 4, !tbaa !35
  %27 = zext i32 %26 to i64
  %28 = getelementptr inbounds nuw ptr, ptr %22, i64 %27
  %29 = load ptr, ptr %4, align 8, !tbaa !477
  %30 = load ptr, ptr %29, align 8, !tbaa !19
  store ptr %30, ptr %28, align 8, !tbaa !19
  %31 = getelementptr inbounds nuw %class.vector, ptr %5, i32 0, i32 0
  %32 = load ptr, ptr %31, align 8, !tbaa !63
  %33 = getelementptr inbounds i32, ptr %32, i64 -1
  %34 = load i32, ptr %33, align 4, !tbaa !35
  %35 = add i32 %34, 1
  store i32 %35, ptr %33, align 4, !tbaa !35
  ret ptr %5
}

; Function Attrs: mustprogress uwtable
define linkonce_odr hidden void @_ZN17scoped_ptr_vectorI20value_generator_coreE9push_backEPS0_(ptr noundef nonnull align 8 dereferenceable(8) %0, ptr noundef %1) #5 comdat align 2 {
  %3 = alloca ptr, align 8
  %4 = alloca ptr, align 8
  store ptr %0, ptr %3, align 8, !tbaa !10
  store ptr %1, ptr %4, align 8, !tbaa !19
  %5 = load ptr, ptr %3, align 8
  %6 = getelementptr inbounds nuw %class.scoped_ptr_vector, ptr %5, i32 0, i32 0
  %7 = call noundef nonnull align 8 dereferenceable(8) ptr @_ZN6vectorIP20value_generator_coreLb0EjE9push_backERKS1_(ptr noundef nonnull align 8 dereferenceable(8) %6, ptr noundef nonnull align 8 dereferenceable(8) %4)
  ret void
}

; Function Attrs: mustprogress nounwind uwtable
define linkonce_odr hidden void @_ZN6vectorIP20value_generator_coreLb0EjE6shrinkEj(ptr noundef nonnull align 8 dereferenceable(8) %0, i32 noundef %1) #4 comdat align 2 {
  %3 = alloca ptr, align 8
  %4 = alloca i32, align 4
  store ptr %0, ptr %3, align 8, !tbaa !61
  store i32 %1, ptr %4, align 4, !tbaa !35
  %5 = load ptr, ptr %3, align 8
  %6 = getelementptr inbounds nuw %class.vector, ptr %5, i32 0, i32 0
  %7 = load ptr, ptr %6, align 8, !tbaa !63
  %8 = icmp ne ptr %7, null
  br i1 %8, label %9, label %14

9:                                                ; preds = %2
  %10 = load i32, ptr %4, align 4, !tbaa !35
  %11 = getelementptr inbounds nuw %class.vector, ptr %5, i32 0, i32 0
  %12 = load ptr, ptr %11, align 8, !tbaa !63
  %13 = getelementptr inbounds i32, ptr %12, i64 -1
  store i32 %10, ptr %13, align 4, !tbaa !35
  br label %15

14:                                               ; preds = %2
  br label %15

15:                                               ; preds = %14, %9
  ret void
}

; Function Attrs: mustprogress uwtable
define linkonce_odr hidden void @_Z7deallocI20value_generator_coreEvPT_(ptr noundef %0) #5 comdat {
  %2 = alloca ptr, align 8
  store ptr %0, ptr %2, align 8, !tbaa !19
  %3 = load ptr, ptr %2, align 8, !tbaa !19
  %4 = icmp eq ptr %3, null
  br i1 %4, label %5, label %6

5:                                                ; preds = %1
  br label %12

6:                                                ; preds = %1
  %7 = load ptr, ptr %2, align 8, !tbaa !19
  %8 = load ptr, ptr %7, align 8, !tbaa !21
  %9 = getelementptr inbounds ptr, ptr %8, i64 0
  %10 = load ptr, ptr %9, align 8
  call void %10(ptr noundef nonnull align 8 dereferenceable(8) %7) #3
  %11 = load ptr, ptr %2, align 8, !tbaa !19
  call void @_ZN6memory10deallocateEPv(ptr noundef %11)
  br label %12

12:                                               ; preds = %6, %5
  ret void
}

; Function Attrs: mustprogress nounwind uwtable
define linkonce_odr hidden noundef nonnull align 8 dereferenceable(8) ptr @_ZN6vectorIP20value_generator_coreLb0EjEixEj(ptr noundef nonnull align 8 dereferenceable(8) %0, i32 noundef %1) #4 comdat align 2 {
  %3 = alloca ptr, align 8
  %4 = alloca i32, align 4
  store ptr %0, ptr %3, align 8, !tbaa !61
  store i32 %1, ptr %4, align 4, !tbaa !35
  %5 = load ptr, ptr %3, align 8
  %6 = getelementptr inbounds nuw %class.vector, ptr %5, i32 0, i32 0
  %7 = load ptr, ptr %6, align 8, !tbaa !63
  %8 = load i32, ptr %4, align 4, !tbaa !35
  %9 = zext i32 %8 to i64
  %10 = getelementptr inbounds nuw ptr, ptr %7, i64 %9
  ret ptr %10
}

; Function Attrs: mustprogress uwtable
define linkonce_odr hidden void @_ZN17scoped_ptr_vectorI20value_generator_coreE6resizeEj(ptr noundef nonnull align 8 dereferenceable(8) %0, i32 noundef %1) #5 comdat align 2 {
  %3 = alloca ptr, align 8
  %4 = alloca i32, align 4
  %5 = alloca i32, align 4
  %6 = alloca i32, align 4
  store ptr %0, ptr %3, align 8, !tbaa !10
  store i32 %1, ptr %4, align 4, !tbaa !35
  %7 = load ptr, ptr %3, align 8
  %8 = load i32, ptr %4, align 4, !tbaa !35
  %9 = getelementptr inbounds nuw %class.scoped_ptr_vector, ptr %7, i32 0, i32 0
  %10 = call noundef i32 @_ZNK6vectorIP20value_generator_coreLb0EjE4sizeEv(ptr noundef nonnull align 8 dereferenceable(8) %9)
  %11 = icmp ult i32 %8, %10
  br i1 %11, label %12, label %29

12:                                               ; preds = %2
  call void @llvm.lifetime.start.p0(i64 4, ptr %5) #3
  %13 = getelementptr inbounds nuw %class.scoped_ptr_vector, ptr %7, i32 0, i32 0
  %14 = call noundef i32 @_ZNK6vectorIP20value_generator_coreLb0EjE4sizeEv(ptr noundef nonnull align 8 dereferenceable(8) %13)
  store i32 %14, ptr %5, align 4, !tbaa !35
  br label %15

15:                                               ; preds = %21, %12
  %16 = load i32, ptr %5, align 4, !tbaa !35
  %17 = add i32 %16, -1
  store i32 %17, ptr %5, align 4, !tbaa !35
  %18 = load i32, ptr %4, align 4, !tbaa !35
  %19 = icmp ugt i32 %16, %18
  br i1 %19, label %21, label %20

20:                                               ; preds = %15
  call void @llvm.lifetime.end.p0(i64 4, ptr %5) #3
  br label %26

21:                                               ; preds = %15
  %22 = getelementptr inbounds nuw %class.scoped_ptr_vector, ptr %7, i32 0, i32 0
  %23 = load i32, ptr %5, align 4, !tbaa !35
  %24 = call noundef nonnull align 8 dereferenceable(8) ptr @_ZN6vectorIP20value_generator_coreLb0EjEixEj(ptr noundef nonnull align 8 dereferenceable(8) %22, i32 noundef %23)
  %25 = load ptr, ptr %24, align 8, !tbaa !19
  call void @_Z7deallocI20value_generator_coreEvPT_(ptr noundef %25)
  br label %15, !llvm.loop !475

26:                                               ; preds = %20
  %27 = getelementptr inbounds nuw %class.scoped_ptr_vector, ptr %7, i32 0, i32 0
  %28 = load i32, ptr %4, align 4, !tbaa !35
  call void @_ZN6vectorIP20value_generator_coreLb0EjE6shrinkEj(ptr noundef nonnull align 8 dereferenceable(8) %27, i32 noundef %28)
  br label %42

29:                                               ; preds = %2
  call void @llvm.lifetime.start.p0(i64 4, ptr %6) #3
  %30 = getelementptr inbounds nuw %class.scoped_ptr_vector, ptr %7, i32 0, i32 0
  %31 = call noundef i32 @_ZNK6vectorIP20value_generator_coreLb0EjE4sizeEv(ptr noundef nonnull align 8 dereferenceable(8) %30)
  store i32 %31, ptr %6, align 4, !tbaa !35
  br label %32

32:                                               ; preds = %38, %29
  %33 = load i32, ptr %6, align 4, !tbaa !35
  %34 = load i32, ptr %4, align 4, !tbaa !35
  %35 = icmp ult i32 %33, %34
  br i1 %35, label %37, label %36

36:                                               ; preds = %32
  call void @llvm.lifetime.end.p0(i64 4, ptr %6) #3
  br label %41

37:                                               ; preds = %32
  call void @_ZN17scoped_ptr_vectorI20value_generator_coreE9push_backEPS0_(ptr noundef nonnull align 8 dereferenceable(8) %7, ptr noundef null)
  br label %38

38:                                               ; preds = %37
  %39 = load i32, ptr %6, align 4, !tbaa !35
  %40 = add i32 %39, 1
  store i32 %40, ptr %6, align 4, !tbaa !35
  br label %32, !llvm.loop !476

41:                                               ; preds = %36
  br label %42

42:                                               ; preds = %41, %26
  ret void
}

; Function Attrs: mustprogress nounwind uwtable
define linkonce_odr hidden noundef i32 @_ZNK6vectorIP20value_generator_coreLb0EjE4sizeEv(ptr noundef nonnull align 8 dereferenceable(8) %0) #4 comdat align 2 {
  %2 = alloca i32, align 4
  %3 = alloca ptr, align 8
  store ptr %0, ptr %3, align 8, !tbaa !61
  %4 = load ptr, ptr %3, align 8
  %5 = getelementptr inbounds nuw %class.vector, ptr %4, i32 0, i32 0
  %6 = load ptr, ptr %5, align 8, !tbaa !63
  %7 = icmp eq ptr %6, null
  br i1 %7, label %8, label %9

8:                                                ; preds = %1
  store i32 0, ptr %2, align 4
  br label %14

9:                                                ; preds = %1
  %10 = getelementptr inbounds nuw %class.vector, ptr %4, i32 0, i32 0
  %11 = load ptr, ptr %10, align 8, !tbaa !63
  %12 = getelementptr inbounds i32, ptr %11, i64 -1
  %13 = load i32, ptr %12, align 4, !tbaa !35
  store i32 %13, ptr %2, align 4
  br label %14

14:                                               ; preds = %9, %8
  %15 = load i32, ptr %2, align 4
  ret i32 %15
}

; Function Attrs: mustprogress uwtable
define linkonce_odr hidden void @_ZN17scoped_ptr_vectorI20value_generator_coreE3setEjPS0_(ptr noundef nonnull align 8 dereferenceable(8) %0, i32 noundef %1, ptr noundef %2) #5 comdat align 2 {
  %4 = alloca ptr, align 8
  %5 = alloca i32, align 4
  %6 = alloca ptr, align 8
  store ptr %0, ptr %4, align 8, !tbaa !10
  store i32 %1, ptr %5, align 4, !tbaa !35
  store ptr %2, ptr %6, align 8, !tbaa !19
  %7 = load ptr, ptr %4, align 8
  %8 = getelementptr inbounds nuw %class.scoped_ptr_vector, ptr %7, i32 0, i32 0
  %9 = load i32, ptr %5, align 4, !tbaa !35
  %10 = call noundef nonnull align 8 dereferenceable(8) ptr @_ZN6vectorIP20value_generator_coreLb0EjEixEj(ptr noundef nonnull align 8 dereferenceable(8) %8, i32 noundef %9)
  %11 = load ptr, ptr %10, align 8, !tbaa !19
  %12 = load ptr, ptr %6, align 8, !tbaa !19
  %13 = icmp eq ptr %11, %12
  br i1 %13, label %14, label %15

14:                                               ; preds = %3
  br label %24

15:                                               ; preds = %3
  %16 = getelementptr inbounds nuw %class.scoped_ptr_vector, ptr %7, i32 0, i32 0
  %17 = load i32, ptr %5, align 4, !tbaa !35
  %18 = call noundef nonnull align 8 dereferenceable(8) ptr @_ZN6vectorIP20value_generator_coreLb0EjEixEj(ptr noundef nonnull align 8 dereferenceable(8) %16, i32 noundef %17)
  %19 = load ptr, ptr %18, align 8, !tbaa !19
  call void @_Z7deallocI20value_generator_coreEvPT_(ptr noundef %19)
  %20 = load ptr, ptr %6, align 8, !tbaa !19
  %21 = getelementptr inbounds nuw %class.scoped_ptr_vector, ptr %7, i32 0, i32 0
  %22 = load i32, ptr %5, align 4, !tbaa !35
  %23 = call noundef nonnull align 8 dereferenceable(8) ptr @_ZN6vectorIP20value_generator_coreLb0EjEixEj(ptr noundef nonnull align 8 dereferenceable(8) %21, i32 noundef %22)
  store ptr %20, ptr %23, align 8, !tbaa !19
  br label %24

24:                                               ; preds = %15, %14
  ret void
}

; Function Attrs: mustprogress uwtable
define linkonce_odr hidden void @_ZN17scoped_ptr_vectorI20value_generator_coreE7reserveEj(ptr noundef nonnull align 8 dereferenceable(8) %0, i32 noundef %1) #5 comdat align 2 {
  %3 = alloca ptr, align 8
  %4 = alloca i32, align 4
  store ptr %0, ptr %3, align 8, !tbaa !10
  store i32 %1, ptr %4, align 4, !tbaa !35
  %5 = load ptr, ptr %3, align 8
  %6 = load i32, ptr %4, align 4, !tbaa !35
  %7 = getelementptr inbounds nuw %class.scoped_ptr_vector, ptr %5, i32 0, i32 0
  %8 = call noundef i32 @_ZNK6vectorIP20value_generator_coreLb0EjE4sizeEv(ptr noundef nonnull align 8 dereferenceable(8) %7)
  %9 = icmp uge i32 %6, %8
  br i1 %9, label %10, label %12

10:                                               ; preds = %2
  %11 = load i32, ptr %4, align 4, !tbaa !35
  call void @_ZN17scoped_ptr_vectorI20value_generator_coreE6resizeEj(ptr noundef nonnull align 8 dereferenceable(8) %5, i32 noundef %11)
  br label %12

12:                                               ; preds = %10, %2
  ret void
}

; Function Attrs: mustprogress uwtable
define hidden void @_ZN15value_generator10add_pluginEP20value_generator_core(ptr noundef nonnull align 8 dereferenceable(16) %0, ptr noundef %1) #5 align 2 {
  %3 = alloca ptr, align 8
  %4 = alloca ptr, align 8
  store ptr %0, ptr %3, align 8, !tbaa !3
  store ptr %1, ptr %4, align 8, !tbaa !19
  %5 = load ptr, ptr %3, align 8
  %6 = getelementptr inbounds nuw %class.value_generator, ptr %5, i32 0, i32 1
  %7 = load ptr, ptr %4, align 8, !tbaa !19
  %8 = load ptr, ptr %7, align 8, !tbaa !21
  %9 = getelementptr inbounds ptr, ptr %8, i64 2
  %10 = load ptr, ptr %9, align 8
  %11 = call noundef i32 %10(ptr noundef nonnull align 8 dereferenceable(8) %7)
  %12 = add nsw i32 %11, 1
  call void @_ZN17scoped_ptr_vectorI20value_generator_coreE7reserveEj(ptr noundef nonnull align 8 dereferenceable(8) %6, i32 noundef %12)
  %13 = getelementptr inbounds nuw %class.value_generator, ptr %5, i32 0, i32 1
  %14 = load ptr, ptr %4, align 8, !tbaa !19
  %15 = load ptr, ptr %14, align 8, !tbaa !21
  %16 = getelementptr inbounds ptr, ptr %15, i64 2
  %17 = load ptr, ptr %16, align 8
  %18 = call noundef i32 %17(ptr noundef nonnull align 8 dereferenceable(8) %14)
  %19 = load ptr, ptr %4, align 8, !tbaa !19
  call void @_ZN17scoped_ptr_vectorI20value_generator_coreE3setEjPS0_(ptr noundef nonnull align 8 dereferenceable(8) %13, i32 noundef %18, ptr noundef %19)
  ret void
}