; Function Attrs: mustprogress uwtable
define hidden void @_ZN15value_generator10add_pluginEP20value_generator_core(ptr noundef nonnull align 8 dereferenceable(16) %0, ptr noundef %1) local_unnamed_addr #4 align 2 {
  %3 = getelementptr inbounds nuw i8, ptr %0, i64 8
  %4 = load ptr, ptr %1, align 8, !tbaa !18
  %5 = getelementptr inbounds nuw i8, ptr %4, i64 16
  %6 = load ptr, ptr %5, align 8
  %7 = tail call noundef i32 %6(ptr noundef nonnull align 8 dereferenceable(8) %1)
  %8 = add nsw i32 %7, 1
  %9 = load ptr, ptr %3, align 8, !tbaa !8
  %10 = icmp eq ptr %9, null
  br i1 %10, label %_ZNK6vectorIP20value_generator_coreLb0EjE4sizeEv.exit13.i.i, label %_ZNK6vectorIP20value_generator_coreLb0EjE4sizeEv.exit.i

_ZNK6vectorIP20value_generator_coreLb0EjE4sizeEv.exit.i: ; preds = %2
  %11 = getelementptr inbounds i8, ptr %9, i64 -4
  %12 = load i32, ptr %11, align 4, !tbaa !12
  %.not.i = icmp ult i32 %8, %12
  br i1 %.not.i, label %_ZN17scoped_ptr_vectorI20value_generator_coreE7reserveEj.exit, label %_ZNK6vectorIP20value_generator_coreLb0EjE4sizeEv.exit13.i.i

_ZNK6vectorIP20value_generator_coreLb0EjE4sizeEv.exit13.i.i: ; preds = %_ZNK6vectorIP20value_generator_coreLb0EjE4sizeEv.exit.i, %2
  %.0.i12.i.i = phi i32 [ 0, %2 ], [ %12, %_ZNK6vectorIP20value_generator_coreLb0EjE4sizeEv.exit.i ]
  %13 = icmp ult i32 %.0.i12.i.i, %8
  br i1 %13, label %.lr.ph17.i.i, label %_ZN17scoped_ptr_vectorI20value_generator_coreE7reserveEj.exit

.lr.ph17.i.i:                                     ; preds = %_ZNK6vectorIP20value_generator_coreLb0EjE4sizeEv.exit13.i.i, %_ZN17scoped_ptr_vectorI20value_generator_coreE9push_backEPS0_.exit.i.i
  %14 = phi ptr [ %23, %_ZN17scoped_ptr_vectorI20value_generator_coreE9push_backEPS0_.exit.i.i ], [ %9, %_ZNK6vectorIP20value_generator_coreLb0EjE4sizeEv.exit13.i.i ]
  %.016.i.i = phi i32 [ %29, %_ZN17scoped_ptr_vectorI20value_generator_coreE9push_backEPS0_.exit.i.i ], [ %.0.i12.i.i, %_ZNK6vectorIP20value_generator_coreLb0EjE4sizeEv.exit13.i.i ]
  %15 = icmp eq ptr %14, null
  br i1 %15, label %22, label %16

16:                                               ; preds = %.lr.ph17.i.i
  %17 = getelementptr inbounds i8, ptr %14, i64 -4
  %18 = load i32, ptr %17, align 4, !tbaa !12
  %19 = getelementptr inbounds i8, ptr %14, i64 -8
  %20 = load i32, ptr %19, align 4, !tbaa !12
  %21 = icmp eq i32 %18, %20
  br i1 %21, label %22, label %_ZN17scoped_ptr_vectorI20value_generator_coreE9push_backEPS0_.exit.i.i

22:                                               ; preds = %16, %.lr.ph17.i.i
  tail call void @_ZN6vectorIP20value_generator_coreLb0EjE13expand_vectorEv(ptr noundef nonnull align 8 dereferenceable(8) %3)
  %.pre.i.i.i.i = load ptr, ptr %3, align 8, !tbaa !8
  %.phi.trans.insert.i.i.i.i = getelementptr inbounds i8, ptr %.pre.i.i.i.i, i64 -4
  %.pre2.i.i.i.i = load i32, ptr %.phi.trans.insert.i.i.i.i, align 4, !tbaa !12
  br label %_ZN17scoped_ptr_vectorI20value_generator_coreE9push_backEPS0_.exit.i.i

_ZN17scoped_ptr_vectorI20value_generator_coreE9push_backEPS0_.exit.i.i: ; preds = %22, %16
  %23 = phi ptr [ %.pre.i.i.i.i, %22 ], [ %14, %16 ]
  %24 = phi i32 [ %.pre2.i.i.i.i, %22 ], [ %18, %16 ]
  %25 = getelementptr inbounds i8, ptr %23, i64 -4
  %26 = zext i32 %24 to i64
  %27 = getelementptr inbounds nuw ptr, ptr %23, i64 %26
  store ptr null, ptr %27, align 8, !tbaa !20
  %28 = add i32 %24, 1
  store i32 %28, ptr %25, align 4, !tbaa !12
  %29 = add i32 %.016.i.i, 1
  %exitcond.not.i.i = icmp eq i32 %.016.i.i, %7
  br i1 %exitcond.not.i.i, label %_ZN17scoped_ptr_vectorI20value_generator_coreE7reserveEj.exit, label %.lr.ph17.i.i, !llvm.loop !22

_ZN17scoped_ptr_vectorI20value_generator_coreE7reserveEj.exit: ; preds = %_ZN17scoped_ptr_vectorI20value_generator_coreE9push_backEPS0_.exit.i.i, %_ZNK6vectorIP20value_generator_coreLb0EjE4sizeEv.exit.i, %_ZNK6vectorIP20value_generator_coreLb0EjE4sizeEv.exit13.i.i
  %30 = load ptr, ptr %1, align 8, !tbaa !18
  %31 = getelementptr inbounds nuw i8, ptr %30, i64 16
  %32 = load ptr, ptr %31, align 8
  %33 = tail call noundef i32 %32(ptr noundef nonnull align 8 dereferenceable(8) %1)
  %34 = load ptr, ptr %3, align 8, !tbaa !8
  %35 = zext i32 %33 to i64
  %36 = getelementptr inbounds nuw ptr, ptr %34, i64 %35
  %37 = load ptr, ptr %36, align 8, !tbaa !20
  %38 = icmp eq ptr %37, %1
  br i1 %38, label %_ZN17scoped_ptr_vectorI20value_generator_coreE3setEjPS0_.exit, label %39

39:                                               ; preds = %_ZN17scoped_ptr_vectorI20value_generator_coreE7reserveEj.exit
  %40 = icmp eq ptr %37, null
  br i1 %40, label %_Z7deallocI20value_generator_coreEvPT_.exit.i, label %41

41:                                               ; preds = %39
  %42 = load ptr, ptr %37, align 8, !tbaa !18
  %43 = load ptr, ptr %42, align 8
  tail call void %43(ptr noundef nonnull align 8 dereferenceable(8) %37) #21
  tail call void @_ZN6memory10deallocateEPv(ptr noundef nonnull %37)
  %.pre.i = load ptr, ptr %3, align 8, !tbaa !8
  br label %_Z7deallocI20value_generator_coreEvPT_.exit.i

_Z7deallocI20value_generator_coreEvPT_.exit.i:    ; preds = %41, %39
  %44 = phi ptr [ %34, %39 ], [ %.pre.i, %41 ]
  %45 = getelementptr inbounds nuw ptr, ptr %44, i64 %35
  store ptr %1, ptr %45, align 8, !tbaa !20
  br label %_ZN17scoped_ptr_vectorI20value_generator_coreE3setEjPS0_.exit

_ZN17scoped_ptr_vectorI20value_generator_coreE3setEjPS0_.exit: ; preds = %_ZN17scoped_ptr_vectorI20value_generator_coreE7reserveEj.exit, %_Z7deallocI20value_generator_coreEvPT_.exit.i
  ret void
}